; Function Attrs: nounwind uwtable
define dso_local i32 @unescape(ptr noundef %0, ptr noundef %1) local_unnamed_addr #1 {
  %3 = load i32, ptr %1, align 4, !tbaa !4
  %4 = icmp sgt i32 %3, 0
  br i1 %4, label %7, label %5

5:                                                ; preds = %2
  tail call void @ucbuf_ungetc(i32 noundef 92, ptr noundef %0) #5
  %6 = tail call i32 @ucbuf_getcx32(ptr noundef %0, ptr noundef nonnull %1) #5
  br label %7

7:                                                ; preds = %2, %5
  %.0 = phi i32 [ %6, %5 ], [ -1, %2 ]
  ret i32 %.0
}